ARM GAS  /tmp/ccjwCj9m.s 			page 1


   1              		.cpu cortex-m4
   2              		.eabi_attribute 27, 1
   3              		.eabi_attribute 28, 1
   4              		.eabi_attribute 20, 1
   5              		.eabi_attribute 21, 1
   6              		.eabi_attribute 23, 3
   7              		.eabi_attribute 24, 1
   8              		.eabi_attribute 25, 1
   9              		.eabi_attribute 26, 1
  10              		.eabi_attribute 30, 1
  11              		.eabi_attribute 34, 1
  12              		.eabi_attribute 18, 4
  13              		.file	"mainLoop.c"
  14              		.text
  15              	.Ltext0:
  16              		.cfi_sections	.debug_frame
  17              		.section	.text._write,"ax",%progbits
  18              		.align	1
  19              		.global	_write
  20              		.arch armv7e-m
  21              		.syntax unified
  22              		.thumb
  23              		.thumb_func
  24              		.fpu fpv4-sp-d16
  26              	_write:
  27              	.LVL0:
  28              	.LFB133:
  29              		.file 1 "Core/Src/mainLoop.c"
   1:Core/Src/mainLoop.c **** #include "mainLoop.h"
   2:Core/Src/mainLoop.c **** #include "main.h"
   3:Core/Src/mainLoop.c **** #include "ad9520_function.h"
   4:Core/Src/mainLoop.c **** 
   5:Core/Src/mainLoop.c **** #include <stdio.h>
   6:Core/Src/mainLoop.c **** extern UART_HandleTypeDef huart2;
   7:Core/Src/mainLoop.c **** extern DAC_HandleTypeDef hdac;
   8:Core/Src/mainLoop.c **** extern TIM_HandleTypeDef htim4;
   9:Core/Src/mainLoop.c **** extern TIM_HandleTypeDef htim1;
  10:Core/Src/mainLoop.c **** extern TIM_HandleTypeDef htim5; //Áî®Êù•ÂÅö1sÁöÑÂÆöÊó∂Âô®
  11:Core/Src/mainLoop.c **** // floating point support in printf isn't enabled by default. To enable, add -u _printf_float to yo
  12:Core/Src/mainLoop.c **** int _write(int fd, char* ptr, int len) {
  30              		.loc 1 12 40 view -0
  31              		.cfi_startproc
  32              		@ args = 0, pretend = 0, frame = 0
  33              		@ frame_needed = 0, uses_anonymous_args = 0
  34              		.loc 1 12 40 is_stmt 0 view .LVU1
  35 0000 10B5     		push	{r4, lr}
  36              	.LCFI0:
  37              		.cfi_def_cfa_offset 8
  38              		.cfi_offset 4, -8
  39              		.cfi_offset 14, -4
  40 0002 1446     		mov	r4, r2
  13:Core/Src/mainLoop.c ****     HAL_UART_Transmit(&huart2, (uint8_t *) ptr, len, HAL_MAX_DELAY);
  41              		.loc 1 13 5 is_stmt 1 view .LVU2
  42 0004 4FF0FF33 		mov	r3, #-1
  43 0008 92B2     		uxth	r2, r2
  44              	.LVL1:
  45              		.loc 1 13 5 is_stmt 0 view .LVU3
ARM GAS  /tmp/ccjwCj9m.s 			page 2


  46 000a 0248     		ldr	r0, .L3
  47              	.LVL2:
  48              		.loc 1 13 5 view .LVU4
  49 000c FFF7FEFF 		bl	HAL_UART_Transmit
  50              	.LVL3:
  14:Core/Src/mainLoop.c ****     return len;
  51              		.loc 1 14 5 is_stmt 1 view .LVU5
  15:Core/Src/mainLoop.c **** }
  52              		.loc 1 15 1 is_stmt 0 view .LVU6
  53 0010 2046     		mov	r0, r4
  54 0012 10BD     		pop	{r4, pc}
  55              	.LVL4:
  56              	.L4:
  57              		.loc 1 15 1 view .LVU7
  58              		.align	2
  59              	.L3:
  60 0014 00000000 		.word	huart2
  61              		.cfi_endproc
  62              	.LFE133:
  64              		.section	.text.transform_capNum_to_xNum,"ax",%progbits
  65              		.align	1
  66              		.global	transform_capNum_to_xNum
  67              		.syntax unified
  68              		.thumb
  69              		.thumb_func
  70              		.fpu fpv4-sp-d16
  72              	transform_capNum_to_xNum:
  73              	.LVL5:
  74              	.LFB134:
  16:Core/Src/mainLoop.c **** 
  17:Core/Src/mainLoop.c **** #define CAPNUM 100
  18:Core/Src/mainLoop.c **** uint32_t chanl1_capNum[CAPNUM] ;
  19:Core/Src/mainLoop.c **** uint32_t chanl2_capNum[CAPNUM] ;
  20:Core/Src/mainLoop.c **** int32_t chanl1_xNum[CAPNUM];
  21:Core/Src/mainLoop.c **** int32_t chanl2_xNum[CAPNUM];
  22:Core/Src/mainLoop.c **** float chanl1_capNum_f[CAPNUM] ;
  23:Core/Src/mainLoop.c **** float chanl2_capNum_f[CAPNUM] ;
  24:Core/Src/mainLoop.c **** int32_t chanl1_completed=0;
  25:Core/Src/mainLoop.c **** int32_t chanl2_completed=0;
  26:Core/Src/mainLoop.c **** float average_xNum1=0,average_xNum2=0;
  27:Core/Src/mainLoop.c **** int32_t chanl1_midx = 0, chanl2_midx = 0; //‰øùÂ≠òÂæ™ÁéØDMAÈòüÂàóÁöÑ‰∏≠Èó¥ÂèòÈáè
  28:Core/Src/mainLoop.c **** //tim4 dma ÊñπÂºèÔºåËé∑ÂæóÊï∞ÊçÆÂàÜ‰∏∫‰∏§ÈÉ®ÂàÜÔºåÂàÜ‰∏∫ÂâçÂêé‰∏§‰∏™halfwordÔºåÊØè‰∏™halfwordÈÉΩ‰ª£
  29:Core/Src/mainLoop.c **** // ËøôÊÆµ‰ª£Á†ÅÊòØÁî®Êù•Â§ÑÁêÜËøô‰∏§‰∏™halfwordÁöÑ
  30:Core/Src/mainLoop.c **** //ËæìÂÖ•ÂèÇÊï∞ canNum‰∏∫‰∏§‰∏™halfwordÁöÑÁªÑÂêàÊï∞ÔºåÊúâ‰∏ä‰∏™‰∏äÂçáÊ≤øÊó∂Èó¥, Áî±‰∫éÁ¨¨‰∏Ä‰∏™Êï∞ÈÄ
  31:Core/Src/mainLoop.c **** void transform_capNum_to_xNum(uint32_t* capNum, int32_t* xNum, int32_t capNum_len){
  75              		.loc 1 31 83 is_stmt 1 view -0
  76              		.cfi_startproc
  77              		@ args = 0, pretend = 0, frame = 0
  78              		@ frame_needed = 0, uses_anonymous_args = 0
  79              		@ link register save eliminated.
  80              		.loc 1 31 83 is_stmt 0 view .LVU9
  81 0000 30B4     		push	{r4, r5}
  82              	.LCFI1:
  83              		.cfi_def_cfa_offset 8
  84              		.cfi_offset 4, -8
  85              		.cfi_offset 5, -4
  32:Core/Src/mainLoop.c ****   int32_t i;
ARM GAS  /tmp/ccjwCj9m.s 			page 3


  86              		.loc 1 32 3 is_stmt 1 view .LVU10
  33:Core/Src/mainLoop.c ****   for(i=0;i<capNum_len/2;i++){
  87              		.loc 1 33 3 view .LVU11
  88              	.LVL6:
  89              		.loc 1 33 8 is_stmt 0 view .LVU12
  90 0002 0023     		movs	r3, #0
  91              	.LVL7:
  92              	.L6:
  93              		.loc 1 33 11 is_stmt 1 discriminator 1 view .LVU13
  94              		.loc 1 33 23 is_stmt 0 discriminator 1 view .LVU14
  95 0004 02EBD274 		add	r4, r2, r2, lsr #31
  96              		.loc 1 33 3 discriminator 1 view .LVU15
  97 0008 B3EB640F 		cmp	r3, r4, asr #1
  98 000c 0BDA     		bge	.L9
  34:Core/Src/mainLoop.c ****     xNum[i*2] = capNum[i]&0xffff;
  99              		.loc 1 34 5 is_stmt 1 discriminator 3 view .LVU16
 100              		.loc 1 34 9 is_stmt 0 discriminator 3 view .LVU17
 101 000e DC00     		lsls	r4, r3, #3
 102              		.loc 1 34 26 discriminator 3 view .LVU18
 103 0010 30F82350 		ldrh	r5, [r0, r3, lsl #2]
 104              		.loc 1 34 15 discriminator 3 view .LVU19
 105 0014 41F83350 		str	r5, [r1, r3, lsl #3]
  35:Core/Src/mainLoop.c ****     xNum[i*2+1] = capNum[i]>>16;
 106              		.loc 1 35 5 is_stmt 1 discriminator 3 view .LVU20
 107              		.loc 1 35 25 is_stmt 0 discriminator 3 view .LVU21
 108 0018 50F82350 		ldr	r5, [r0, r3, lsl #2]
 109              		.loc 1 35 9 discriminator 3 view .LVU22
 110 001c 0434     		adds	r4, r4, #4
 111              		.loc 1 35 28 discriminator 3 view .LVU23
 112 001e 2D0C     		lsrs	r5, r5, #16
 113              		.loc 1 35 17 discriminator 3 view .LVU24
 114 0020 0D51     		str	r5, [r1, r4]
  33:Core/Src/mainLoop.c ****   for(i=0;i<capNum_len/2;i++){
 115              		.loc 1 33 26 is_stmt 1 discriminator 3 view .LVU25
  33:Core/Src/mainLoop.c ****   for(i=0;i<capNum_len/2;i++){
 116              		.loc 1 33 27 is_stmt 0 discriminator 3 view .LVU26
 117 0022 0133     		adds	r3, r3, #1
 118              	.LVL8:
  33:Core/Src/mainLoop.c ****   for(i=0;i<capNum_len/2;i++){
 119              		.loc 1 33 27 discriminator 3 view .LVU27
 120 0024 EEE7     		b	.L6
 121              	.L9:
  36:Core/Src/mainLoop.c ****   }
  37:Core/Src/mainLoop.c **** }
 122              		.loc 1 37 1 view .LVU28
 123 0026 30BC     		pop	{r4, r5}
 124              	.LCFI2:
 125              		.cfi_restore 5
 126              		.cfi_restore 4
 127              		.cfi_def_cfa_offset 0
 128 0028 7047     		bx	lr
 129              		.cfi_endproc
 130              	.LFE134:
 132              		.section	.text.cal_average_xNum,"ax",%progbits
 133              		.align	1
 134              		.global	cal_average_xNum
 135              		.syntax unified
ARM GAS  /tmp/ccjwCj9m.s 			page 4


 136              		.thumb
 137              		.thumb_func
 138              		.fpu fpv4-sp-d16
 140              	cal_average_xNum:
 141              	.LVL9:
 142              	.LFB135:
  38:Core/Src/mainLoop.c **** 
  39:Core/Src/mainLoop.c **** //ËÆ°ÁÆóÂπ≥ÂùáxNumÔºå
  40:Core/Src/mainLoop.c **** //cal_average_xNum(chanl1_xNum, CAPNUM);
  41:Core/Src/mainLoop.c **** int32_t cal_average_xNum(int32_t* xNum, int32_t capNum_len){
 143              		.loc 1 41 60 is_stmt 1 view -0
 144              		.cfi_startproc
 145              		@ args = 0, pretend = 0, frame = 0
 146              		@ frame_needed = 0, uses_anonymous_args = 0
 147              		@ link register save eliminated.
 148              		.loc 1 41 60 is_stmt 0 view .LVU30
 149 0000 70B4     		push	{r4, r5, r6}
 150              	.LCFI3:
 151              		.cfi_def_cfa_offset 12
 152              		.cfi_offset 4, -12
 153              		.cfi_offset 5, -8
 154              		.cfi_offset 6, -4
  42:Core/Src/mainLoop.c ****   int32_t i,sum=0;
 155              		.loc 1 42 3 is_stmt 1 view .LVU31
 156              	.LVL10:
  43:Core/Src/mainLoop.c ****   for(i=0; i<capNum_len-1; i++){
 157              		.loc 1 43 3 view .LVU32
  42:Core/Src/mainLoop.c ****   int32_t i,sum=0;
 158              		.loc 1 42 13 is_stmt 0 view .LVU33
 159 0002 0025     		movs	r5, #0
 160              		.loc 1 43 8 view .LVU34
 161 0004 2B46     		mov	r3, r5
 162              	.LVL11:
 163              	.L11:
 164              		.loc 1 43 12 is_stmt 1 discriminator 1 view .LVU35
 165              		.loc 1 43 24 is_stmt 0 discriminator 1 view .LVU36
 166 0006 4A1E     		subs	r2, r1, #1
 167              		.loc 1 43 3 discriminator 1 view .LVU37
 168 0008 9A42     		cmp	r2, r3
 169 000a 0ADD     		ble	.L14
  44:Core/Src/mainLoop.c ****     xNum[i] = xNum[i+1]-xNum[i];
 170              		.loc 1 44 5 is_stmt 1 discriminator 3 view .LVU38
 171              		.loc 1 44 19 is_stmt 0 discriminator 3 view .LVU39
 172 000c 5C1C     		adds	r4, r3, #1
 173 000e 50F82420 		ldr	r2, [r0, r4, lsl #2]
 174              		.loc 1 44 29 discriminator 3 view .LVU40
 175 0012 50F82360 		ldr	r6, [r0, r3, lsl #2]
 176              		.loc 1 44 24 discriminator 3 view .LVU41
 177 0016 921B     		subs	r2, r2, r6
 178              		.loc 1 44 13 discriminator 3 view .LVU42
 179 0018 40F82320 		str	r2, [r0, r3, lsl #2]
  45:Core/Src/mainLoop.c ****     sum+=xNum[i];
 180              		.loc 1 45 5 is_stmt 1 discriminator 3 view .LVU43
 181              		.loc 1 45 8 is_stmt 0 discriminator 3 view .LVU44
 182 001c 1544     		add	r5, r5, r2
 183              	.LVL12:
  43:Core/Src/mainLoop.c ****   for(i=0; i<capNum_len-1; i++){
ARM GAS  /tmp/ccjwCj9m.s 			page 5


 184              		.loc 1 43 28 is_stmt 1 discriminator 3 view .LVU45
  43:Core/Src/mainLoop.c ****   for(i=0; i<capNum_len-1; i++){
 185              		.loc 1 43 29 is_stmt 0 discriminator 3 view .LVU46
 186 001e 2346     		mov	r3, r4
 187              	.LVL13:
  43:Core/Src/mainLoop.c ****   for(i=0; i<capNum_len-1; i++){
 188              		.loc 1 43 29 discriminator 3 view .LVU47
 189 0020 F1E7     		b	.L11
 190              	.L14:
  46:Core/Src/mainLoop.c ****   }
  47:Core/Src/mainLoop.c ****   return sum/(capNum_len-1);
 191              		.loc 1 47 3 is_stmt 1 view .LVU48
  48:Core/Src/mainLoop.c **** }
 192              		.loc 1 48 1 is_stmt 0 view .LVU49
 193 0022 95FBF2F0 		sdiv	r0, r5, r2
 194              	.LVL14:
 195              		.loc 1 48 1 view .LVU50
 196 0026 70BC     		pop	{r4, r5, r6}
 197              	.LCFI4:
 198              		.cfi_restore 6
 199              		.cfi_restore 5
 200              		.cfi_restore 4
 201              		.cfi_def_cfa_offset 0
 202              	.LVL15:
 203              		.loc 1 48 1 view .LVU51
 204 0028 7047     		bx	lr
 205              		.cfi_endproc
 206              	.LFE135:
 208              		.section	.text.enable_tim4_capture_Iterrupt,"ax",%progbits
 209              		.align	1
 210              		.global	enable_tim4_capture_Iterrupt
 211              		.syntax unified
 212              		.thumb
 213              		.thumb_func
 214              		.fpu fpv4-sp-d16
 216              	enable_tim4_capture_Iterrupt:
 217              	.LFB136:
  49:Core/Src/mainLoop.c **** 
  50:Core/Src/mainLoop.c **** void enable_tim4_capture_Iterrupt(void){
 218              		.loc 1 50 40 is_stmt 1 view -0
 219              		.cfi_startproc
 220              		@ args = 0, pretend = 0, frame = 0
 221              		@ frame_needed = 0, uses_anonymous_args = 0
 222 0000 08B5     		push	{r3, lr}
 223              	.LCFI5:
 224              		.cfi_def_cfa_offset 8
 225              		.cfi_offset 3, -8
 226              		.cfi_offset 14, -4
  51:Core/Src/mainLoop.c ****  // HAL_TIM_Base_Start_IT(&htim4);
  52:Core/Src/mainLoop.c ****   // HAL_TIM_IC_Start_IT(&htim4, TIM_CHANNEL_1);
  53:Core/Src/mainLoop.c ****   // HAL_TIM_IC_Start_IT(&htim4, TIM_CHANNEL_2);
  54:Core/Src/mainLoop.c ****   //HAL_TIM_IC_Start_DMA(&htim4, TIM_CHANNEL_1, (uint32_t*)chanl1_capNum, CAPNUM+4);
  55:Core/Src/mainLoop.c ****   
  56:Core/Src/mainLoop.c ****   // HAL_TIM_IC_Start_DMA(&htim4, TIM_CHANNEL_2, (uint32_t*)chanl2_capNum, CAPNUM);
  57:Core/Src/mainLoop.c ****   // HAL_TIM_IC_Start_DMA(&htim1, TIM_CHANNEL_4, (uint32_t*)chanl1_capNum, CAPNUM);
  58:Core/Src/mainLoop.c ****   HAL_TIM_Base_Start_IT(&htim5);
 227              		.loc 1 58 3 view .LVU53
ARM GAS  /tmp/ccjwCj9m.s 			page 6


 228 0002 0548     		ldr	r0, .L17
 229 0004 FFF7FEFF 		bl	HAL_TIM_Base_Start_IT
 230              	.LVL16:
  59:Core/Src/mainLoop.c ****   HAL_TIM_Base_Start_IT(&htim4);
 231              		.loc 1 59 3 view .LVU54
 232 0008 0448     		ldr	r0, .L17+4
 233 000a FFF7FEFF 		bl	HAL_TIM_Base_Start_IT
 234              	.LVL17:
  60:Core/Src/mainLoop.c ****   HAL_TIM_Base_Start_IT(&htim1);
 235              		.loc 1 60 3 view .LVU55
 236 000e 0448     		ldr	r0, .L17+8
 237 0010 FFF7FEFF 		bl	HAL_TIM_Base_Start_IT
 238              	.LVL18:
  61:Core/Src/mainLoop.c **** }
 239              		.loc 1 61 1 is_stmt 0 view .LVU56
 240 0014 08BD     		pop	{r3, pc}
 241              	.L18:
 242 0016 00BF     		.align	2
 243              	.L17:
 244 0018 00000000 		.word	htim5
 245 001c 00000000 		.word	htim4
 246 0020 00000000 		.word	htim1
 247              		.cfi_endproc
 248              	.LFE136:
 250              		.global	__aeabi_f2d
 251              		.global	__aeabi_ddiv
 252              		.global	__aeabi_dmul
 253              		.global	__aeabi_d2uiz
 254              		.section	.rodata.mainLoop.str1.4,"aMS",%progbits,1
 255              		.align	2
 256              	.LC0:
 257 0000 68656C6C 		.ascii	"hello world %ld:float %f\012\000"
 257      6F20776F 
 257      726C6420 
 257      256C643A 
 257      666C6F61 
 258              		.section	.text.mainLoop,"ax",%progbits
 259              		.align	1
 260              		.global	mainLoop
 261              		.syntax unified
 262              		.thumb
 263              		.thumb_func
 264              		.fpu fpv4-sp-d16
 266              	mainLoop:
 267              	.LFB137:
  62:Core/Src/mainLoop.c **** 
  63:Core/Src/mainLoop.c **** 
  64:Core/Src/mainLoop.c **** uint32_t i=0;
  65:Core/Src/mainLoop.c **** float f=3.14;
  66:Core/Src/mainLoop.c **** // int32_t chanl1_capNum = 0;
  67:Core/Src/mainLoop.c **** // int32_t chanl2_capNum = 0;
  68:Core/Src/mainLoop.c **** int32_t fre_dif = 0;
  69:Core/Src/mainLoop.c **** int32_t xx,yy,complete_sign;
  70:Core/Src/mainLoop.c **** int32_t xx_cnt,yy_cnt;
  71:Core/Src/mainLoop.c **** uint8_t buf[4];
  72:Core/Src/mainLoop.c **** float v_dianya;
  73:Core/Src/mainLoop.c **** 
ARM GAS  /tmp/ccjwCj9m.s 			page 7


  74:Core/Src/mainLoop.c **** void mainLoop(void){
 268              		.loc 1 74 20 is_stmt 1 view -0
 269              		.cfi_startproc
 270              		@ args = 0, pretend = 0, frame = 0
 271              		@ frame_needed = 0, uses_anonymous_args = 0
 272 0000 F8B5     		push	{r3, r4, r5, r6, r7, lr}
 273              	.LCFI6:
 274              		.cfi_def_cfa_offset 24
 275              		.cfi_offset 3, -24
 276              		.cfi_offset 4, -20
 277              		.cfi_offset 5, -16
 278              		.cfi_offset 6, -12
 279              		.cfi_offset 7, -8
 280              		.cfi_offset 14, -4
  75:Core/Src/mainLoop.c ****   int32_t xx_bak=0;
 281              		.loc 1 75 3 view .LVU58
 282              	.LVL19:
  76:Core/Src/mainLoop.c ****   int32_t yy_bak=0;
 283              		.loc 1 76 3 view .LVU59
  77:Core/Src/mainLoop.c ****   //init_ad9520_spiport();
  78:Core/Src/mainLoop.c ****   complete_sign=0;
 284              		.loc 1 78 3 view .LVU60
 285              		.loc 1 78 16 is_stmt 0 view .LVU61
 286 0002 0024     		movs	r4, #0
 287 0004 4A4B     		ldr	r3, .L27+8
 288 0006 1C60     		str	r4, [r3]
  79:Core/Src/mainLoop.c ****   xx=0;yy=0;fre_dif=0;
 289              		.loc 1 79 3 is_stmt 1 view .LVU62
 290              		.loc 1 79 5 is_stmt 0 view .LVU63
 291 0008 4A4B     		ldr	r3, .L27+12
 292 000a 1C60     		str	r4, [r3]
 293              		.loc 1 79 8 is_stmt 1 view .LVU64
 294              		.loc 1 79 10 is_stmt 0 view .LVU65
 295 000c 4A4B     		ldr	r3, .L27+16
 296 000e 1C60     		str	r4, [r3]
 297              		.loc 1 79 13 is_stmt 1 view .LVU66
 298              		.loc 1 79 20 is_stmt 0 view .LVU67
 299 0010 4A4D     		ldr	r5, .L27+20
 300 0012 2C60     		str	r4, [r5]
  80:Core/Src/mainLoop.c ****   xx_cnt=0;yy_cnt=0;
 301              		.loc 1 80 3 is_stmt 1 view .LVU68
 302              		.loc 1 80 9 is_stmt 0 view .LVU69
 303 0014 4A4B     		ldr	r3, .L27+24
 304 0016 1C60     		str	r4, [r3]
 305              		.loc 1 80 12 is_stmt 1 view .LVU70
 306              		.loc 1 80 18 is_stmt 0 view .LVU71
 307 0018 4A4B     		ldr	r3, .L27+28
 308 001a 1C60     		str	r4, [r3]
  81:Core/Src/mainLoop.c ****   v_dianya = 1.65;
 309              		.loc 1 81 3 is_stmt 1 view .LVU72
 310              		.loc 1 81 12 is_stmt 0 view .LVU73
 311 001c 4A4F     		ldr	r7, .L27+32
 312 001e 4B4B     		ldr	r3, .L27+36
 313 0020 3B60     		str	r3, [r7]	@ float
  82:Core/Src/mainLoop.c ****   HAL_DAC_Start(&hdac,DAC_CHANNEL_1); 
 314              		.loc 1 82 3 is_stmt 1 view .LVU74
 315 0022 4B4E     		ldr	r6, .L27+40
ARM GAS  /tmp/ccjwCj9m.s 			page 8


 316 0024 2146     		mov	r1, r4
 317 0026 3046     		mov	r0, r6
 318 0028 FFF7FEFF 		bl	HAL_DAC_Start
 319              	.LVL20:
  83:Core/Src/mainLoop.c ****  // HAL_GPIO_TogglePin(LED3_GPIO_Port, LED3_Pin);
  84:Core/Src/mainLoop.c ****   HAL_DAC_SetValue(&hdac, DAC_CHANNEL_1, DAC_ALIGN_12B_R, (uint32_t)((v_dianya/3.3)*4096));
 320              		.loc 1 84 3 view .LVU75
 321              		.loc 1 84 79 is_stmt 0 view .LVU76
 322 002c 3868     		ldr	r0, [r7]	@ float
 323 002e FFF7FEFF 		bl	__aeabi_f2d
 324              	.LVL21:
 325 0032 3DA3     		adr	r3, .L27
 326 0034 D3E90023 		ldrd	r2, [r3]
 327 0038 FFF7FEFF 		bl	__aeabi_ddiv
 328              	.LVL22:
 329              		.loc 1 84 84 view .LVU77
 330 003c 0022     		movs	r2, #0
 331 003e 454B     		ldr	r3, .L27+44
 332 0040 FFF7FEFF 		bl	__aeabi_dmul
 333              	.LVL23:
 334              		.loc 1 84 3 view .LVU78
 335 0044 FFF7FEFF 		bl	__aeabi_d2uiz
 336              	.LVL24:
 337 0048 0346     		mov	r3, r0
 338 004a 2246     		mov	r2, r4
 339 004c 2146     		mov	r1, r4
 340 004e 3046     		mov	r0, r6
 341 0050 FFF7FEFF 		bl	HAL_DAC_SetValue
 342              	.LVL25:
  85:Core/Src/mainLoop.c ****   //HAL_UART_Receive_IT(UART_HandleTypeDef *huart, uint8_t *pData, uint16_t Size)
  86:Core/Src/mainLoop.c ****   HAL_UART_Receive_IT(&huart2, (uint8_t *)(buf), 1);
 343              		.loc 1 86 3 is_stmt 1 view .LVU79
 344 0054 0122     		movs	r2, #1
 345 0056 4049     		ldr	r1, .L27+48
 346 0058 4048     		ldr	r0, .L27+52
 347 005a FFF7FEFF 		bl	HAL_UART_Receive_IT
 348              	.LVL26:
  87:Core/Src/mainLoop.c ****   init_ad9520();
 349              		.loc 1 87 3 view .LVU80
 350 005e FFF7FEFF 		bl	init_ad9520
 351              	.LVL27:
  88:Core/Src/mainLoop.c ****   enable_tim4_capture_Iterrupt();
 352              		.loc 1 88 3 view .LVU81
 353 0062 FFF7FEFF 		bl	enable_tim4_capture_Iterrupt
 354              	.LVL28:
  89:Core/Src/mainLoop.c ****   while(1){
 355              		.loc 1 89 3 view .LVU82
  90:Core/Src/mainLoop.c ****     // do{
  91:Core/Src/mainLoop.c **** 
  92:Core/Src/mainLoop.c ****     // }while(0);
  93:Core/Src/mainLoop.c **** 
  94:Core/Src/mainLoop.c ****     i++;
 356              		.loc 1 94 5 view .LVU83
 357              		.loc 1 94 6 is_stmt 0 view .LVU84
 358 0066 3E4C     		ldr	r4, .L27+56
 359 0068 2368     		ldr	r3, [r4]
 360 006a 0133     		adds	r3, r3, #1
ARM GAS  /tmp/ccjwCj9m.s 			page 9


 361 006c 2360     		str	r3, [r4]
  95:Core/Src/mainLoop.c ****     
  96:Core/Src/mainLoop.c ****     // HAL_DAC_SetValue(DAC_HandleTypeDef* hdac, uint32_t Channel, uint32_t Alignment, uint32_t Dat
  97:Core/Src/mainLoop.c ****     
  98:Core/Src/mainLoop.c ****    // HAL_DAC_SetValue(&hdac, DAC_CHANNEL_1, DAC_ALIGN_12B_R, i++);
  99:Core/Src/mainLoop.c ****     //init_ad9520();
 100:Core/Src/mainLoop.c ****    // set_ad9520_device();
 101:Core/Src/mainLoop.c ****     // HAL_GPIO_TogglePin(GPIO_TypeDef* GPIOx, uint16_t GPIO_Pin)
 102:Core/Src/mainLoop.c ****     HAL_GPIO_TogglePin(LED3_GPIO_Port, LED3_Pin);
 362              		.loc 1 102 5 is_stmt 1 view .LVU85
 363 006e 3D4E     		ldr	r6, .L27+60
 364 0070 4FF40061 		mov	r1, #2048
 365 0074 3046     		mov	r0, r6
 366 0076 FFF7FEFF 		bl	HAL_GPIO_TogglePin
 367              	.LVL29:
 103:Core/Src/mainLoop.c ****    HAL_Delay(3);
 368              		.loc 1 103 4 view .LVU86
 369 007a 0320     		movs	r0, #3
 370 007c FFF7FEFF 		bl	HAL_Delay
 371              	.LVL30:
 104:Core/Src/mainLoop.c ****     HAL_GPIO_TogglePin(LED4_GPIO_Port, LED4_Pin);
 372              		.loc 1 104 5 view .LVU87
 373 0080 4FF48051 		mov	r1, #4096
 374 0084 3046     		mov	r0, r6
 375 0086 FFF7FEFF 		bl	HAL_GPIO_TogglePin
 376              	.LVL31:
 105:Core/Src/mainLoop.c ****     HAL_Delay(300);
 377              		.loc 1 105 5 view .LVU88
 378 008a 4FF49670 		mov	r0, #300
 379 008e FFF7FEFF 		bl	HAL_Delay
 380              	.LVL32:
 106:Core/Src/mainLoop.c ****     check_ad9520_status();
 381              		.loc 1 106 5 view .LVU89
 382 0092 FFF7FEFF 		bl	check_ad9520_status
 383              	.LVL33:
 107:Core/Src/mainLoop.c ****     printf("hello world %ld:float %f\n",i,f*i);
 384              		.loc 1 107 5 view .LVU90
 385 0096 2468     		ldr	r4, [r4]
 386              		.loc 1 107 44 is_stmt 0 view .LVU91
 387 0098 07EE904A 		vmov	s15, r4	@ int
 388 009c B8EE677A 		vcvt.f32.u32	s14, s15
 389 00a0 314B     		ldr	r3, .L27+64
 390 00a2 D3ED007A 		vldr.32	s15, [r3]
 391              		.loc 1 107 5 view .LVU92
 392 00a6 67EE277A 		vmul.f32	s15, s14, s15
 393 00aa 17EE900A 		vmov	r0, s15
 394 00ae FFF7FEFF 		bl	__aeabi_f2d
 395              	.LVL34:
 396 00b2 0246     		mov	r2, r0
 397 00b4 0B46     		mov	r3, r1
 398 00b6 2146     		mov	r1, r4
 399 00b8 2C48     		ldr	r0, .L27+68
 400 00ba FFF7FEFF 		bl	printf
 401              	.LVL35:
 108:Core/Src/mainLoop.c ****     fre_dif = chanl1_capNum - chanl2_capNum;
 402              		.loc 1 108 5 is_stmt 1 view .LVU93
 403              		.loc 1 108 29 is_stmt 0 view .LVU94
ARM GAS  /tmp/ccjwCj9m.s 			page 10


 404 00be 2C4B     		ldr	r3, .L27+72
 405 00c0 2C4A     		ldr	r2, .L27+76
 406 00c2 9B1A     		subs	r3, r3, r2
 407 00c4 9B10     		asrs	r3, r3, #2
 408              		.loc 1 108 13 view .LVU95
 409 00c6 2B60     		str	r3, [r5]
 410 00c8 1FE0     		b	.L23
 411              	.L25:
 109:Core/Src/mainLoop.c **** 
 110:Core/Src/mainLoop.c ****     while(1){
 111:Core/Src/mainLoop.c ****       // if(chanl1_completed==1 ){
 112:Core/Src/mainLoop.c ****       //   chanl1_completed=0;
 113:Core/Src/mainLoop.c ****       //   transform_capNum_to_xNum((uint32_t *)(&chanl1_capNum[2]), chanl1_xNum, CAPNUM);
 114:Core/Src/mainLoop.c ****       //   average_xNum1 = (float)cal_average_xNum(chanl1_xNum, CAPNUM);
 115:Core/Src/mainLoop.c ****       //   //HAL_TIM_IC_Start_DMA(&htim4, TIM_CHANNEL_1, (uint32_t*)chanl1_capNum, CAPNUM);
 116:Core/Src/mainLoop.c ****         
 117:Core/Src/mainLoop.c ****       //   break;
 118:Core/Src/mainLoop.c ****       // }else if(chanl2_completed==1){
 119:Core/Src/mainLoop.c ****       //   chanl2_completed=0;
 120:Core/Src/mainLoop.c ****       //   //HAL_TIM_IC_Start_DMA(&htim4, TIM_CHANNEL_2, (uint32_t*)chanl2_capNum, CAPNUM);
 121:Core/Src/mainLoop.c ****       //   break;
 122:Core/Src/mainLoop.c ****       // }
 123:Core/Src/mainLoop.c ****     
 124:Core/Src/mainLoop.c ****       if(v_dianya>1){
 125:Core/Src/mainLoop.c ****         v_dianya = 0;
 126:Core/Src/mainLoop.c ****       }else{
 127:Core/Src/mainLoop.c ****         v_dianya = 3.3;
 412              		.loc 1 127 9 is_stmt 1 view .LVU96
 413              		.loc 1 127 18 is_stmt 0 view .LVU97
 414 00ca 1F4B     		ldr	r3, .L27+32
 415 00cc 2A4A     		ldr	r2, .L27+80
 416 00ce 1A60     		str	r2, [r3]	@ float
 417              	.L22:
 128:Core/Src/mainLoop.c ****       }
 129:Core/Src/mainLoop.c ****       HAL_DAC_SetValue(&hdac, DAC_CHANNEL_1, DAC_ALIGN_12B_R, (uint32_t)((v_dianya/3.3)*4096));
 418              		.loc 1 129 7 is_stmt 1 view .LVU98
 419              		.loc 1 129 83 is_stmt 0 view .LVU99
 420 00d0 1D4B     		ldr	r3, .L27+32
 421 00d2 1868     		ldr	r0, [r3]	@ float
 422 00d4 FFF7FEFF 		bl	__aeabi_f2d
 423              	.LVL36:
 424 00d8 13A3     		adr	r3, .L27
 425 00da D3E90023 		ldrd	r2, [r3]
 426 00de FFF7FEFF 		bl	__aeabi_ddiv
 427              	.LVL37:
 428              		.loc 1 129 88 view .LVU100
 429 00e2 0022     		movs	r2, #0
 430 00e4 1B4B     		ldr	r3, .L27+44
 431 00e6 FFF7FEFF 		bl	__aeabi_dmul
 432              	.LVL38:
 433              		.loc 1 129 7 view .LVU101
 434 00ea FFF7FEFF 		bl	__aeabi_d2uiz
 435              	.LVL39:
 436 00ee 0346     		mov	r3, r0
 437 00f0 0022     		movs	r2, #0
 438 00f2 1146     		mov	r1, r2
 439 00f4 1648     		ldr	r0, .L27+40
ARM GAS  /tmp/ccjwCj9m.s 			page 11


 440 00f6 FFF7FEFF 		bl	HAL_DAC_SetValue
 441              	.LVL40:
 130:Core/Src/mainLoop.c ****       HAL_Delay(100);
 442              		.loc 1 130 7 is_stmt 1 view .LVU102
 443 00fa 6420     		movs	r0, #100
 444 00fc FFF7FEFF 		bl	HAL_Delay
 445              	.LVL41:
 131:Core/Src/mainLoop.c ****       HAL_GPIO_TogglePin(LED4_GPIO_Port, LED4_Pin);
 446              		.loc 1 131 7 view .LVU103
 447 0100 4FF48051 		mov	r1, #4096
 448 0104 1748     		ldr	r0, .L27+60
 449 0106 FFF7FEFF 		bl	HAL_GPIO_TogglePin
 450              	.LVL42:
 110:Core/Src/mainLoop.c ****       // if(chanl1_completed==1 ){
 451              		.loc 1 110 10 view .LVU104
 452              	.L23:
 110:Core/Src/mainLoop.c ****       // if(chanl1_completed==1 ){
 453              		.loc 1 110 5 view .LVU105
 124:Core/Src/mainLoop.c ****         v_dianya = 0;
 454              		.loc 1 124 7 view .LVU106
 124:Core/Src/mainLoop.c ****         v_dianya = 0;
 455              		.loc 1 124 18 is_stmt 0 view .LVU107
 456 010a 0F4B     		ldr	r3, .L27+32
 457 010c 93ED007A 		vldr.32	s14, [r3]
 124:Core/Src/mainLoop.c ****         v_dianya = 0;
 458              		.loc 1 124 9 view .LVU108
 459 0110 F7EE007A 		vmov.f32	s15, #1.0e+0
 460 0114 B4EEE77A 		vcmpe.f32	s14, s15
 461 0118 F1EE10FA 		vmrs	APSR_nzcv, FPSCR
 462 011c D5DD     		ble	.L25
 125:Core/Src/mainLoop.c ****       }else{
 463              		.loc 1 125 9 is_stmt 1 view .LVU109
 125:Core/Src/mainLoop.c ****       }else{
 464              		.loc 1 125 18 is_stmt 0 view .LVU110
 465 011e 0022     		movs	r2, #0
 466 0120 1A60     		str	r2, [r3]	@ float
 467 0122 D5E7     		b	.L22
 468              	.L28:
 469 0124 AFF30080 		.align	3
 470              	.L27:
 471 0128 66666666 		.word	1717986918
 472 012c 66660A40 		.word	1074423398
 473 0130 00000000 		.word	complete_sign
 474 0134 00000000 		.word	xx
 475 0138 00000000 		.word	yy
 476 013c 00000000 		.word	.LANCHOR0
 477 0140 00000000 		.word	xx_cnt
 478 0144 00000000 		.word	yy_cnt
 479 0148 00000000 		.word	v_dianya
 480 014c 3333D33F 		.word	1070805811
 481 0150 00000000 		.word	hdac
 482 0154 0000B040 		.word	1085276160
 483 0158 00000000 		.word	buf
 484 015c 00000000 		.word	huart2
 485 0160 00000000 		.word	.LANCHOR1
 486 0164 00080240 		.word	1073874944
 487 0168 00000000 		.word	.LANCHOR2
ARM GAS  /tmp/ccjwCj9m.s 			page 12


 488 016c 00000000 		.word	.LC0
 489 0170 00000000 		.word	chanl1_capNum
 490 0174 00000000 		.word	chanl2_capNum
 491 0178 33335340 		.word	1079194419
 492              		.cfi_endproc
 493              	.LFE137:
 495              		.section	.text.HAL_TIM_IC_CaptureCallback,"ax",%progbits
 496              		.align	1
 497              		.global	HAL_TIM_IC_CaptureCallback
 498              		.syntax unified
 499              		.thumb
 500              		.thumb_func
 501              		.fpu fpv4-sp-d16
 503              	HAL_TIM_IC_CaptureCallback:
 504              	.LVL43:
 505              	.LFB138:
 132:Core/Src/mainLoop.c ****       //check_ad9520_status();
 133:Core/Src/mainLoop.c ****     }
 134:Core/Src/mainLoop.c **** 
 135:Core/Src/mainLoop.c ****     while(complete_sign == 0){
 136:Core/Src/mainLoop.c ****       HAL_Delay(3);
 137:Core/Src/mainLoop.c ****     };
 138:Core/Src/mainLoop.c ****     complete_sign = 0;
 139:Core/Src/mainLoop.c ****     //fre_dif=chanl1_midx - chanl2_midx;
 140:Core/Src/mainLoop.c ****     printf("%ld = %ld - %ld \n",fre_dif,xx,yy);
 141:Core/Src/mainLoop.c ****     printf("cha1=%ld,cha2=%ld\n",xx-xx_bak,yy-yy_bak);
 142:Core/Src/mainLoop.c ****     xx_bak=xx;
 143:Core/Src/mainLoop.c ****     yy_bak=yy;
 144:Core/Src/mainLoop.c **** 
 145:Core/Src/mainLoop.c ****     HAL_Delay(2);
 146:Core/Src/mainLoop.c ****   }
 147:Core/Src/mainLoop.c **** }
 148:Core/Src/mainLoop.c **** 
 149:Core/Src/mainLoop.c **** 
 150:Core/Src/mainLoop.c **** void HAL_TIM_IC_CaptureCallback(TIM_HandleTypeDef* htim){
 506              		.loc 1 150 57 is_stmt 1 view -0
 507              		.cfi_startproc
 508              		@ args = 0, pretend = 0, frame = 0
 509              		@ frame_needed = 0, uses_anonymous_args = 0
 510              		@ link register save eliminated.
 151:Core/Src/mainLoop.c ****   if(htim->Instance == TIM4){
 511              		.loc 1 151 3 view .LVU112
 512              		.loc 1 151 10 is_stmt 0 view .LVU113
 513 0000 0368     		ldr	r3, [r0]
 514              		.loc 1 151 5 view .LVU114
 515 0002 104A     		ldr	r2, .L36
 516 0004 9342     		cmp	r3, r2
 517 0006 03D0     		beq	.L33
 152:Core/Src/mainLoop.c ****     if(htim->Channel == HAL_TIM_ACTIVE_CHANNEL_1){
 153:Core/Src/mainLoop.c ****       // chanl1_capNum++;
 154:Core/Src/mainLoop.c ****       // chanl2_capNum = TIM4->CCR1;
 155:Core/Src/mainLoop.c ****       //xx = TIM4->CCR1;
 156:Core/Src/mainLoop.c ****       // for(i=1;i<CAPNUM;i++){
 157:Core/Src/mainLoop.c ****       //   chanl1_capNum[i-1]=chanl1_capNum[i]-chanl1_capNum[i-1];
 158:Core/Src/mainLoop.c ****       // }
 159:Core/Src/mainLoop.c ****       //yy = TIM4->CCR2;
 160:Core/Src/mainLoop.c ****       //chanl1_completed=1;
ARM GAS  /tmp/ccjwCj9m.s 			page 13


 161:Core/Src/mainLoop.c ****       chanl1_midx = chanl1_capNum[CAPNUM/2-2]&0xffff;
 162:Core/Src/mainLoop.c ****       //chanl2_midx = TIM4->CCR2;
 163:Core/Src/mainLoop.c ****       //htim->Channel &= ~HAL_TIM_ACTIVE_CHANNEL_1;
 164:Core/Src/mainLoop.c ****     }
 165:Core/Src/mainLoop.c ****     if(htim->Channel == HAL_TIM_ACTIVE_CHANNEL_2){
 166:Core/Src/mainLoop.c ****       //chanl2_capNum++;
 167:Core/Src/mainLoop.c ****       chanl2_midx = chanl2_capNum[CAPNUM/2-2]&0xffff;
 168:Core/Src/mainLoop.c ****       //htim->Channel &= ~HAL_TIM_ACTIVE_CHANNEL_2;
 169:Core/Src/mainLoop.c ****     }
 170:Core/Src/mainLoop.c ****   }else if(htim->Instance == TIM1){
 518              		.loc 1 170 9 is_stmt 1 view .LVU115
 519              		.loc 1 170 11 is_stmt 0 view .LVU116
 520 0008 0F4A     		ldr	r2, .L36+4
 521 000a 9342     		cmp	r3, r2
 522 000c 11D0     		beq	.L34
 523              	.L29:
 171:Core/Src/mainLoop.c ****     if(htim->Channel == HAL_TIM_ACTIVE_CHANNEL_4){
 172:Core/Src/mainLoop.c ****       //chanl2_capNum++;
 173:Core/Src/mainLoop.c ****       chanl1_midx = chanl1_capNum[CAPNUM/2-2]&0xffff;
 174:Core/Src/mainLoop.c ****       //htim->Channel &= ~HAL_TIM_ACTIVE_CHANNEL_2;
 175:Core/Src/mainLoop.c ****     }
 176:Core/Src/mainLoop.c ****   }
 177:Core/Src/mainLoop.c **** 
 178:Core/Src/mainLoop.c **** }
 524              		.loc 1 178 1 view .LVU117
 525 000e 7047     		bx	lr
 526              	.L33:
 152:Core/Src/mainLoop.c ****     if(htim->Channel == HAL_TIM_ACTIVE_CHANNEL_1){
 527              		.loc 1 152 5 is_stmt 1 view .LVU118
 152:Core/Src/mainLoop.c ****     if(htim->Channel == HAL_TIM_ACTIVE_CHANNEL_1){
 528              		.loc 1 152 12 is_stmt 0 view .LVU119
 529 0010 037F     		ldrb	r3, [r0, #28]	@ zero_extendqisi2
 152:Core/Src/mainLoop.c ****     if(htim->Channel == HAL_TIM_ACTIVE_CHANNEL_1){
 530              		.loc 1 152 7 view .LVU120
 531 0012 012B     		cmp	r3, #1
 532 0014 07D0     		beq	.L35
 533              	.L31:
 165:Core/Src/mainLoop.c ****       //chanl2_capNum++;
 534              		.loc 1 165 5 is_stmt 1 view .LVU121
 165:Core/Src/mainLoop.c ****       //chanl2_capNum++;
 535              		.loc 1 165 7 is_stmt 0 view .LVU122
 536 0016 022B     		cmp	r3, #2
 537 0018 F9D1     		bne	.L29
 167:Core/Src/mainLoop.c ****       //htim->Channel &= ~HAL_TIM_ACTIVE_CHANNEL_2;
 538              		.loc 1 167 7 is_stmt 1 view .LVU123
 167:Core/Src/mainLoop.c ****       //htim->Channel &= ~HAL_TIM_ACTIVE_CHANNEL_2;
 539              		.loc 1 167 46 is_stmt 0 view .LVU124
 540 001a 0C4B     		ldr	r3, .L36+8
 541 001c B3F8C020 		ldrh	r2, [r3, #192]
 167:Core/Src/mainLoop.c ****       //htim->Channel &= ~HAL_TIM_ACTIVE_CHANNEL_2;
 542              		.loc 1 167 19 view .LVU125
 543 0020 0B4B     		ldr	r3, .L36+12
 544 0022 1A60     		str	r2, [r3]
 545 0024 7047     		bx	lr
 546              	.L35:
 161:Core/Src/mainLoop.c ****       //chanl2_midx = TIM4->CCR2;
 547              		.loc 1 161 7 is_stmt 1 view .LVU126
ARM GAS  /tmp/ccjwCj9m.s 			page 14


 161:Core/Src/mainLoop.c ****       //chanl2_midx = TIM4->CCR2;
 548              		.loc 1 161 46 is_stmt 0 view .LVU127
 549 0026 0B4A     		ldr	r2, .L36+16
 550 0028 B2F8C010 		ldrh	r1, [r2, #192]
 161:Core/Src/mainLoop.c ****       //chanl2_midx = TIM4->CCR2;
 551              		.loc 1 161 19 view .LVU128
 552 002c 0A4A     		ldr	r2, .L36+20
 553 002e 1160     		str	r1, [r2]
 554 0030 F1E7     		b	.L31
 555              	.L34:
 171:Core/Src/mainLoop.c ****       //chanl2_capNum++;
 556              		.loc 1 171 5 is_stmt 1 view .LVU129
 171:Core/Src/mainLoop.c ****       //chanl2_capNum++;
 557              		.loc 1 171 12 is_stmt 0 view .LVU130
 558 0032 037F     		ldrb	r3, [r0, #28]	@ zero_extendqisi2
 171:Core/Src/mainLoop.c ****       //chanl2_capNum++;
 559              		.loc 1 171 7 view .LVU131
 560 0034 082B     		cmp	r3, #8
 561 0036 EAD1     		bne	.L29
 173:Core/Src/mainLoop.c ****       //htim->Channel &= ~HAL_TIM_ACTIVE_CHANNEL_2;
 562              		.loc 1 173 7 is_stmt 1 view .LVU132
 173:Core/Src/mainLoop.c ****       //htim->Channel &= ~HAL_TIM_ACTIVE_CHANNEL_2;
 563              		.loc 1 173 46 is_stmt 0 view .LVU133
 564 0038 064B     		ldr	r3, .L36+16
 565 003a B3F8C020 		ldrh	r2, [r3, #192]
 173:Core/Src/mainLoop.c ****       //htim->Channel &= ~HAL_TIM_ACTIVE_CHANNEL_2;
 566              		.loc 1 173 19 view .LVU134
 567 003e 064B     		ldr	r3, .L36+20
 568 0040 1A60     		str	r2, [r3]
 569              		.loc 1 178 1 view .LVU135
 570 0042 E4E7     		b	.L29
 571              	.L37:
 572              		.align	2
 573              	.L36:
 574 0044 00080040 		.word	1073743872
 575 0048 00000140 		.word	1073807360
 576 004c 00000000 		.word	chanl2_capNum
 577 0050 00000000 		.word	.LANCHOR4
 578 0054 00000000 		.word	chanl1_capNum
 579 0058 00000000 		.word	.LANCHOR3
 580              		.cfi_endproc
 581              	.LFE138:
 583              		.section	.text.HAL_TIM_PeriodElapsedCallback,"ax",%progbits
 584              		.align	1
 585              		.global	HAL_TIM_PeriodElapsedCallback
 586              		.syntax unified
 587              		.thumb
 588              		.thumb_func
 589              		.fpu fpv4-sp-d16
 591              	HAL_TIM_PeriodElapsedCallback:
 592              	.LVL44:
 593              	.LFB139:
 179:Core/Src/mainLoop.c **** 
 180:Core/Src/mainLoop.c **** void HAL_TIM_PeriodElapsedCallback(TIM_HandleTypeDef* htim)
 181:Core/Src/mainLoop.c **** {
 594              		.loc 1 181 1 is_stmt 1 view -0
 595              		.cfi_startproc
ARM GAS  /tmp/ccjwCj9m.s 			page 15


 596              		@ args = 0, pretend = 0, frame = 0
 597              		@ frame_needed = 0, uses_anonymous_args = 0
 598              		.loc 1 181 1 is_stmt 0 view .LVU137
 599 0000 08B5     		push	{r3, lr}
 600              	.LCFI7:
 601              		.cfi_def_cfa_offset 8
 602              		.cfi_offset 3, -8
 603              		.cfi_offset 14, -4
 182:Core/Src/mainLoop.c ****     //htim4.Init.Period = 65535; 1ms ÂÆöÊó∂
 183:Core/Src/mainLoop.c ****     // if(htim == &htim4){
 184:Core/Src/mainLoop.c ****     //   HAL_GPIO_TogglePin(LED4_GPIO_Port, LED4_Pin);
 185:Core/Src/mainLoop.c ****     //   xx= HAL_TIM_ReadCapturedValue(&htim4, TIM_CHANNEL_1);
 186:Core/Src/mainLoop.c ****       
 187:Core/Src/mainLoop.c ****     //   yy = TIM4->CCR2;
 188:Core/Src/mainLoop.c ****     //   //TIM4->CCR1=0;
 189:Core/Src/mainLoop.c ****     //   //TIM4->CCR2=0;
 190:Core/Src/mainLoop.c ****     //   fre_dif = xx - yy;
 191:Core/Src/mainLoop.c ****     // }
 192:Core/Src/mainLoop.c ****     if(htim == &htim5){
 604              		.loc 1 192 5 is_stmt 1 view .LVU138
 605              		.loc 1 192 7 is_stmt 0 view .LVU139
 606 0002 0C4B     		ldr	r3, .L42
 607 0004 8342     		cmp	r3, r0
 608 0006 00D0     		beq	.L41
 609              	.LVL45:
 610              	.L38:
 193:Core/Src/mainLoop.c ****       
 194:Core/Src/mainLoop.c ****       
 195:Core/Src/mainLoop.c ****       xx = TIM4->CNT;
 196:Core/Src/mainLoop.c ****       //yy = TIM4->CCR2;
 197:Core/Src/mainLoop.c ****       yy = TIM1->CNT;
 198:Core/Src/mainLoop.c ****       fre_dif = xx - yy;
 199:Core/Src/mainLoop.c ****       complete_sign = 1;
 200:Core/Src/mainLoop.c ****       HAL_GPIO_TogglePin(LED3_GPIO_Port, LED3_Pin);
 201:Core/Src/mainLoop.c ****     }
 202:Core/Src/mainLoop.c ****     // if(htim == &htim1){
 203:Core/Src/mainLoop.c ****     //   xx_cnt++;
 204:Core/Src/mainLoop.c ****     // }
 205:Core/Src/mainLoop.c ****     // if(htim == &htim4){
 206:Core/Src/mainLoop.c ****     //   yy_cnt++;
 207:Core/Src/mainLoop.c ****     // }
 208:Core/Src/mainLoop.c **** }
 611              		.loc 1 208 1 view .LVU140
 612 0008 08BD     		pop	{r3, pc}
 613              	.LVL46:
 614              	.L41:
 195:Core/Src/mainLoop.c ****       //yy = TIM4->CCR2;
 615              		.loc 1 195 7 is_stmt 1 view .LVU141
 195:Core/Src/mainLoop.c ****       //yy = TIM4->CCR2;
 616              		.loc 1 195 16 is_stmt 0 view .LVU142
 617 000a 0B4B     		ldr	r3, .L42+4
 618 000c 5B6A     		ldr	r3, [r3, #36]
 195:Core/Src/mainLoop.c ****       //yy = TIM4->CCR2;
 619              		.loc 1 195 10 view .LVU143
 620 000e 0B4A     		ldr	r2, .L42+8
 621 0010 1360     		str	r3, [r2]
 197:Core/Src/mainLoop.c ****       fre_dif = xx - yy;
ARM GAS  /tmp/ccjwCj9m.s 			page 16


 622              		.loc 1 197 7 is_stmt 1 view .LVU144
 197:Core/Src/mainLoop.c ****       fre_dif = xx - yy;
 623              		.loc 1 197 16 is_stmt 0 view .LVU145
 624 0012 0B4A     		ldr	r2, .L42+12
 625 0014 526A     		ldr	r2, [r2, #36]
 197:Core/Src/mainLoop.c ****       fre_dif = xx - yy;
 626              		.loc 1 197 10 view .LVU146
 627 0016 0B49     		ldr	r1, .L42+16
 628 0018 0A60     		str	r2, [r1]
 198:Core/Src/mainLoop.c ****       complete_sign = 1;
 629              		.loc 1 198 7 is_stmt 1 view .LVU147
 198:Core/Src/mainLoop.c ****       complete_sign = 1;
 630              		.loc 1 198 20 is_stmt 0 view .LVU148
 631 001a 9B1A     		subs	r3, r3, r2
 198:Core/Src/mainLoop.c ****       complete_sign = 1;
 632              		.loc 1 198 15 view .LVU149
 633 001c 0A4A     		ldr	r2, .L42+20
 634 001e 1360     		str	r3, [r2]
 199:Core/Src/mainLoop.c ****       HAL_GPIO_TogglePin(LED3_GPIO_Port, LED3_Pin);
 635              		.loc 1 199 7 is_stmt 1 view .LVU150
 199:Core/Src/mainLoop.c ****       HAL_GPIO_TogglePin(LED3_GPIO_Port, LED3_Pin);
 636              		.loc 1 199 21 is_stmt 0 view .LVU151
 637 0020 0A4B     		ldr	r3, .L42+24
 638 0022 0122     		movs	r2, #1
 639 0024 1A60     		str	r2, [r3]
 200:Core/Src/mainLoop.c ****     }
 640              		.loc 1 200 7 is_stmt 1 view .LVU152
 641 0026 4FF40061 		mov	r1, #2048
 642 002a 0948     		ldr	r0, .L42+28
 643              	.LVL47:
 200:Core/Src/mainLoop.c ****     }
 644              		.loc 1 200 7 is_stmt 0 view .LVU153
 645 002c FFF7FEFF 		bl	HAL_GPIO_TogglePin
 646              	.LVL48:
 647              		.loc 1 208 1 view .LVU154
 648 0030 EAE7     		b	.L38
 649              	.L43:
 650 0032 00BF     		.align	2
 651              	.L42:
 652 0034 00000000 		.word	htim5
 653 0038 00080040 		.word	1073743872
 654 003c 00000000 		.word	xx
 655 0040 00000140 		.word	1073807360
 656 0044 00000000 		.word	yy
 657 0048 00000000 		.word	.LANCHOR0
 658 004c 00000000 		.word	complete_sign
 659 0050 00080240 		.word	1073874944
 660              		.cfi_endproc
 661              	.LFE139:
 663              		.global	__aeabi_dadd
 664              		.global	__aeabi_d2f
 665              		.global	__aeabi_dsub
 666              		.section	.text.HAL_UART_RxCpltCallback,"ax",%progbits
 667              		.align	1
 668              		.global	HAL_UART_RxCpltCallback
 669              		.syntax unified
 670              		.thumb
ARM GAS  /tmp/ccjwCj9m.s 			page 17


 671              		.thumb_func
 672              		.fpu fpv4-sp-d16
 674              	HAL_UART_RxCpltCallback:
 675              	.LVL49:
 676              	.LFB140:
 209:Core/Src/mainLoop.c **** 
 210:Core/Src/mainLoop.c **** // void HAL_GPIO_EXTI_Callback( uint16_t GPIO_Pin)
 211:Core/Src/mainLoop.c **** // {
 212:Core/Src/mainLoop.c **** // 	if(GPIO_Pin == capture_sig_it_Pin){
 213:Core/Src/mainLoop.c **** // 	   //This block will be triggered after pin activated.
 214:Core/Src/mainLoop.c **** //      chanl2_capNum++;
 215:Core/Src/mainLoop.c **** // 	}
 216:Core/Src/mainLoop.c **** // }
 217:Core/Src/mainLoop.c **** void HAL_UART_RxCpltCallback(UART_HandleTypeDef *huart){
 677              		.loc 1 217 56 is_stmt 1 view -0
 678              		.cfi_startproc
 679              		@ args = 0, pretend = 0, frame = 0
 680              		@ frame_needed = 0, uses_anonymous_args = 0
 218:Core/Src/mainLoop.c ****   if(huart == &huart2){
 681              		.loc 1 218 3 view .LVU156
 682              		.loc 1 218 5 is_stmt 0 view .LVU157
 683 0000 514B     		ldr	r3, .L59+24
 684 0002 8342     		cmp	r3, r0
 685 0004 00D0     		beq	.L54
 686 0006 7047     		bx	lr
 687              	.L54:
 217:Core/Src/mainLoop.c ****   if(huart == &huart2){
 688              		.loc 1 217 56 view .LVU158
 689 0008 10B5     		push	{r4, lr}
 690              	.LCFI8:
 691              		.cfi_def_cfa_offset 8
 692              		.cfi_offset 4, -8
 693              		.cfi_offset 14, -4
 219:Core/Src/mainLoop.c ****     //xx++;
 220:Core/Src/mainLoop.c ****     //uint8_t tmp = (uint16_t)(huart->Instance->DR & (uint16_t)0x01FF);
 221:Core/Src/mainLoop.c ****     if(buf[0] == 'u'){
 694              		.loc 1 221 5 is_stmt 1 view .LVU159
 695              		.loc 1 221 11 is_stmt 0 view .LVU160
 696 000a 504B     		ldr	r3, .L59+28
 697 000c 1B78     		ldrb	r3, [r3]	@ zero_extendqisi2
 698              		.loc 1 221 7 view .LVU161
 699 000e 752B     		cmp	r3, #117
 700 0010 0BD0     		beq	.L55
 222:Core/Src/mainLoop.c ****       //HAL_GPIO_TogglePin(LED3_GPIO_Port, LED3_Pin);
 223:Core/Src/mainLoop.c ****       v_dianya += 0.1;
 224:Core/Src/mainLoop.c ****       HAL_DAC_SetValue(&hdac, DAC_CHANNEL_1, DAC_ALIGN_12B_R, (uint32_t)((v_dianya/3.3)*4096));
 225:Core/Src/mainLoop.c ****     }else if(buf[0]  == 'd'){
 701              		.loc 1 225 11 is_stmt 1 view .LVU162
 702              		.loc 1 225 13 is_stmt 0 view .LVU163
 703 0012 642B     		cmp	r3, #100
 704 0014 29D0     		beq	.L56
 226:Core/Src/mainLoop.c ****       //HAL_GPIO_TogglePin(LED4_GPIO_Port, LED4_Pin);
 227:Core/Src/mainLoop.c ****       v_dianya -= 0.1;
 228:Core/Src/mainLoop.c ****       HAL_DAC_SetValue(&hdac, DAC_CHANNEL_1, DAC_ALIGN_12B_R, (uint32_t)((v_dianya/3.3)*4096));
 229:Core/Src/mainLoop.c ****     }else if(buf[0] == 'r'){
 705              		.loc 1 229 11 is_stmt 1 view .LVU164
 706              		.loc 1 229 13 is_stmt 0 view .LVU165
ARM GAS  /tmp/ccjwCj9m.s 			page 18


 707 0016 722B     		cmp	r3, #114
 708 0018 47D0     		beq	.L57
 230:Core/Src/mainLoop.c ****       v_dianya += 0.01;
 231:Core/Src/mainLoop.c ****       HAL_DAC_SetValue(&hdac, DAC_CHANNEL_1, DAC_ALIGN_12B_R, (uint32_t)((v_dianya/3.3)*4096));
 232:Core/Src/mainLoop.c ****     }else if(buf[0] == 'x'){
 709              		.loc 1 232 11 is_stmt 1 view .LVU166
 710              		.loc 1 232 13 is_stmt 0 view .LVU167
 711 001a 782B     		cmp	r3, #120
 712 001c 65D0     		beq	.L58
 713              	.LVL50:
 714              	.L47:
 233:Core/Src/mainLoop.c ****        v_dianya -= 0.01;
 234:Core/Src/mainLoop.c ****       HAL_DAC_SetValue(&hdac, DAC_CHANNEL_1, DAC_ALIGN_12B_R, (uint32_t)((v_dianya/3.3)*4096));
 235:Core/Src/mainLoop.c ****     }
 236:Core/Src/mainLoop.c ****     HAL_UART_Receive_IT(&huart2, (uint8_t *)(buf), 1);
 715              		.loc 1 236 5 is_stmt 1 view .LVU168
 716 001e 0122     		movs	r2, #1
 717 0020 4A49     		ldr	r1, .L59+28
 718 0022 4948     		ldr	r0, .L59+24
 719 0024 FFF7FEFF 		bl	HAL_UART_Receive_IT
 720              	.LVL51:
 237:Core/Src/mainLoop.c ****   }
 238:Core/Src/mainLoop.c **** }...
 721              		.loc 1 238 1 is_stmt 0 view .LVU169
 722 0028 10BD     		pop	{r4, pc}
 723              	.LVL52:
 724              	.L55:
 223:Core/Src/mainLoop.c ****       v_dianya += 0.1;
 725              		.loc 1 223 7 is_stmt 1 view .LVU170
 223:Core/Src/mainLoop.c ****       v_dianya += 0.1;
 726              		.loc 1 223 16 is_stmt 0 view .LVU171
 727 002a 494C     		ldr	r4, .L59+32
 728 002c 2068     		ldr	r0, [r4]	@ float
 729              	.LVL53:
 223:Core/Src/mainLoop.c ****       v_dianya += 0.1;
 730              		.loc 1 223 16 view .LVU172
 731 002e FFF7FEFF 		bl	__aeabi_f2d
 732              	.LVL54:
 733 0032 3FA3     		adr	r3, .L59
 734 0034 D3E90023 		ldrd	r2, [r3]
 735 0038 FFF7FEFF 		bl	__aeabi_dadd
 736              	.LVL55:
 737 003c FFF7FEFF 		bl	__aeabi_d2f
 738              	.LVL56:
 739 0040 2060     		str	r0, [r4]	@ float
 224:Core/Src/mainLoop.c ****       HAL_DAC_SetValue(&hdac, DAC_CHANNEL_1, DAC_ALIGN_12B_R, (uint32_t)((v_dianya/3.3)*4096));
 740              		.loc 1 224 7 is_stmt 1 view .LVU173
 224:Core/Src/mainLoop.c ****       HAL_DAC_SetValue(&hdac, DAC_CHANNEL_1, DAC_ALIGN_12B_R, (uint32_t)((v_dianya/3.3)*4096));
 741              		.loc 1 224 83 is_stmt 0 view .LVU174
 742 0042 FFF7FEFF 		bl	__aeabi_f2d
 743              	.LVL57:
 744 0046 3CA3     		adr	r3, .L59+8
 745 0048 D3E90023 		ldrd	r2, [r3]
 746 004c FFF7FEFF 		bl	__aeabi_ddiv
 747              	.LVL58:
 224:Core/Src/mainLoop.c ****       HAL_DAC_SetValue(&hdac, DAC_CHANNEL_1, DAC_ALIGN_12B_R, (uint32_t)((v_dianya/3.3)*4096));
 748              		.loc 1 224 88 view .LVU175
ARM GAS  /tmp/ccjwCj9m.s 			page 19


 749 0050 0022     		movs	r2, #0
 750 0052 404B     		ldr	r3, .L59+36
 751 0054 FFF7FEFF 		bl	__aeabi_dmul
 752              	.LVL59:
 224:Core/Src/mainLoop.c ****       HAL_DAC_SetValue(&hdac, DAC_CHANNEL_1, DAC_ALIGN_12B_R, (uint32_t)((v_dianya/3.3)*4096));
 753              		.loc 1 224 7 view .LVU176
 754 0058 FFF7FEFF 		bl	__aeabi_d2uiz
 755              	.LVL60:
 756 005c 0346     		mov	r3, r0
 757 005e 0022     		movs	r2, #0
 758 0060 1146     		mov	r1, r2
 759 0062 3D48     		ldr	r0, .L59+40
 760 0064 FFF7FEFF 		bl	HAL_DAC_SetValue
 761              	.LVL61:
 762 0068 D9E7     		b	.L47
 763              	.LVL62:
 764              	.L56:
 227:Core/Src/mainLoop.c ****       v_dianya -= 0.1;
 765              		.loc 1 227 7 is_stmt 1 view .LVU177
 227:Core/Src/mainLoop.c ****       v_dianya -= 0.1;
 766              		.loc 1 227 16 is_stmt 0 view .LVU178
 767 006a 394C     		ldr	r4, .L59+32
 768 006c 2068     		ldr	r0, [r4]	@ float
 769              	.LVL63:
 227:Core/Src/mainLoop.c ****       v_dianya -= 0.1;
 770              		.loc 1 227 16 view .LVU179
 771 006e FFF7FEFF 		bl	__aeabi_f2d
 772              	.LVL64:
 773 0072 2FA3     		adr	r3, .L59
 774 0074 D3E90023 		ldrd	r2, [r3]
 775 0078 FFF7FEFF 		bl	__aeabi_dsub
 776              	.LVL65:
 777 007c FFF7FEFF 		bl	__aeabi_d2f
 778              	.LVL66:
 779 0080 2060     		str	r0, [r4]	@ float
 228:Core/Src/mainLoop.c ****       HAL_DAC_SetValue(&hdac, DAC_CHANNEL_1, DAC_ALIGN_12B_R, (uint32_t)((v_dianya/3.3)*4096));
 780              		.loc 1 228 7 is_stmt 1 view .LVU180
 228:Core/Src/mainLoop.c ****       HAL_DAC_SetValue(&hdac, DAC_CHANNEL_1, DAC_ALIGN_12B_R, (uint32_t)((v_dianya/3.3)*4096));
 781              		.loc 1 228 83 is_stmt 0 view .LVU181
 782 0082 FFF7FEFF 		bl	__aeabi_f2d
 783              	.LVL67:
 784 0086 2CA3     		adr	r3, .L59+8
 785 0088 D3E90023 		ldrd	r2, [r3]
 786 008c FFF7FEFF 		bl	__aeabi_ddiv
 787              	.LVL68:
 228:Core/Src/mainLoop.c ****       HAL_DAC_SetValue(&hdac, DAC_CHANNEL_1, DAC_ALIGN_12B_R, (uint32_t)((v_dianya/3.3)*4096));
 788              		.loc 1 228 88 view .LVU182
 789 0090 0022     		movs	r2, #0
 790 0092 304B     		ldr	r3, .L59+36
 791 0094 FFF7FEFF 		bl	__aeabi_dmul
 792              	.LVL69:
 228:Core/Src/mainLoop.c ****       HAL_DAC_SetValue(&hdac, DAC_CHANNEL_1, DAC_ALIGN_12B_R, (uint32_t)((v_dianya/3.3)*4096));
 793              		.loc 1 228 7 view .LVU183
 794 0098 FFF7FEFF 		bl	__aeabi_d2uiz
 795              	.LVL70:
 796 009c 0346     		mov	r3, r0
 797 009e 0022     		movs	r2, #0
ARM GAS  /tmp/ccjwCj9m.s 			page 20


 798 00a0 1146     		mov	r1, r2
 799 00a2 2D48     		ldr	r0, .L59+40
 800 00a4 FFF7FEFF 		bl	HAL_DAC_SetValue
 801              	.LVL71:
 802 00a8 B9E7     		b	.L47
 803              	.LVL72:
 804              	.L57:
 230:Core/Src/mainLoop.c ****       v_dianya += 0.01;
 805              		.loc 1 230 7 is_stmt 1 view .LVU184
 230:Core/Src/mainLoop.c ****       v_dianya += 0.01;
 806              		.loc 1 230 16 is_stmt 0 view .LVU185
 807 00aa 294C     		ldr	r4, .L59+32
 808 00ac 2068     		ldr	r0, [r4]	@ float
 809              	.LVL73:
 230:Core/Src/mainLoop.c ****       v_dianya += 0.01;
 810              		.loc 1 230 16 view .LVU186
 811 00ae FFF7FEFF 		bl	__aeabi_f2d
 812              	.LVL74:
 813 00b2 23A3     		adr	r3, .L59+16
 814 00b4 D3E90023 		ldrd	r2, [r3]
 815 00b8 FFF7FEFF 		bl	__aeabi_dadd
 816              	.LVL75:
 817 00bc FFF7FEFF 		bl	__aeabi_d2f
 818              	.LVL76:
 819 00c0 2060     		str	r0, [r4]	@ float
 231:Core/Src/mainLoop.c ****       HAL_DAC_SetValue(&hdac, DAC_CHANNEL_1, DAC_ALIGN_12B_R, (uint32_t)((v_dianya/3.3)*4096));
 820              		.loc 1 231 7 is_stmt 1 view .LVU187
 231:Core/Src/mainLoop.c ****       HAL_DAC_SetValue(&hdac, DAC_CHANNEL_1, DAC_ALIGN_12B_R, (uint32_t)((v_dianya/3.3)*4096));
 821              		.loc 1 231 83 is_stmt 0 view .LVU188
 822 00c2 FFF7FEFF 		bl	__aeabi_f2d
 823              	.LVL77:
 824 00c6 1CA3     		adr	r3, .L59+8
 825 00c8 D3E90023 		ldrd	r2, [r3]
 826 00cc FFF7FEFF 		bl	__aeabi_ddiv
 827              	.LVL78:
 231:Core/Src/mainLoop.c ****       HAL_DAC_SetValue(&hdac, DAC_CHANNEL_1, DAC_ALIGN_12B_R, (uint32_t)((v_dianya/3.3)*4096));
 828              		.loc 1 231 88 view .LVU189
 829 00d0 0022     		movs	r2, #0
 830 00d2 204B     		ldr	r3, .L59+36
 831 00d4 FFF7FEFF 		bl	__aeabi_dmul
 832              	.LVL79:
 231:Core/Src/mainLoop.c ****       HAL_DAC_SetValue(&hdac, DAC_CHANNEL_1, DAC_ALIGN_12B_R, (uint32_t)((v_dianya/3.3)*4096));
 833              		.loc 1 231 7 view .LVU190
 834 00d8 FFF7FEFF 		bl	__aeabi_d2uiz
 835              	.LVL80:
 836 00dc 0346     		mov	r3, r0
 837 00de 0022     		movs	r2, #0
 838 00e0 1146     		mov	r1, r2
 839 00e2 1D48     		ldr	r0, .L59+40
 840 00e4 FFF7FEFF 		bl	HAL_DAC_SetValue
 841              	.LVL81:
 842 00e8 99E7     		b	.L47
 843              	.LVL82:
 844              	.L58:
 233:Core/Src/mainLoop.c ****        v_dianya -= 0.01;
 845              		.loc 1 233 8 is_stmt 1 view .LVU191
 233:Core/Src/mainLoop.c ****        v_dianya -= 0.01;
ARM GAS  /tmp/ccjwCj9m.s 			page 21


 846              		.loc 1 233 17 is_stmt 0 view .LVU192
 847 00ea 194C     		ldr	r4, .L59+32
 848 00ec 2068     		ldr	r0, [r4]	@ float
 849              	.LVL83:
 233:Core/Src/mainLoop.c ****        v_dianya -= 0.01;
 850              		.loc 1 233 17 view .LVU193
 851 00ee FFF7FEFF 		bl	__aeabi_f2d
 852              	.LVL84:
 853 00f2 13A3     		adr	r3, .L59+16
 854 00f4 D3E90023 		ldrd	r2, [r3]
 855 00f8 FFF7FEFF 		bl	__aeabi_dsub
 856              	.LVL85:
 857 00fc FFF7FEFF 		bl	__aeabi_d2f
 858              	.LVL86:
 859 0100 2060     		str	r0, [r4]	@ float
 234:Core/Src/mainLoop.c ****       HAL_DAC_SetValue(&hdac, DAC_CHANNEL_1, DAC_ALIGN_12B_R, (uint32_t)((v_dianya/3.3)*4096));
 860              		.loc 1 234 7 is_stmt 1 view .LVU194
 234:Core/Src/mainLoop.c ****       HAL_DAC_SetValue(&hdac, DAC_CHANNEL_1, DAC_ALIGN_12B_R, (uint32_t)((v_dianya/3.3)*4096));
 861              		.loc 1 234 83 is_stmt 0 view .LVU195
 862 0102 FFF7FEFF 		bl	__aeabi_f2d
 863              	.LVL87:
 864 0106 0CA3     		adr	r3, .L59+8
 865 0108 D3E90023 		ldrd	r2, [r3]
 866 010c FFF7FEFF 		bl	__aeabi_ddiv
 867              	.LVL88:
 234:Core/Src/mainLoop.c ****       HAL_DAC_SetValue(&hdac, DAC_CHANNEL_1, DAC_ALIGN_12B_R, (uint32_t)((v_dianya/3.3)*4096));
 868              		.loc 1 234 88 view .LVU196
 869 0110 0022     		movs	r2, #0
 870 0112 104B     		ldr	r3, .L59+36
 871 0114 FFF7FEFF 		bl	__aeabi_dmul
 872              	.LVL89:
 234:Core/Src/mainLoop.c ****       HAL_DAC_SetValue(&hdac, DAC_CHANNEL_1, DAC_ALIGN_12B_R, (uint32_t)((v_dianya/3.3)*4096));
 873              		.loc 1 234 7 view .LVU197
 874 0118 FFF7FEFF 		bl	__aeabi_d2uiz
 875              	.LVL90:
 876 011c 0346     		mov	r3, r0
 877 011e 0022     		movs	r2, #0
 878 0120 1146     		mov	r1, r2
 879 0122 0D48     		ldr	r0, .L59+40
 880 0124 FFF7FEFF 		bl	HAL_DAC_SetValue
 881              	.LVL91:
 882 0128 79E7     		b	.L47
 883              	.L60:
 884 012a 00BFAFF3 		.align	3
 884      0080
 885              	.L59:
 886 0130 9A999999 		.word	2576980378
 887 0134 9999B93F 		.word	1069128089
 888 0138 66666666 		.word	1717986918
 889 013c 66660A40 		.word	1074423398
 890 0140 7B14AE47 		.word	1202590843
 891 0144 E17A843F 		.word	1065646817
 892 0148 00000000 		.word	huart2
 893 014c 00000000 		.word	buf
 894 0150 00000000 		.word	v_dianya
 895 0154 0000B040 		.word	1085276160
 896 0158 00000000 		.word	hdac
ARM GAS  /tmp/ccjwCj9m.s 			page 22


 897              		.cfi_endproc
 898              	.LFE140:
 900              		.comm	v_dianya,4,4
 901              		.comm	buf,4,4
 902              		.comm	yy_cnt,4,4
 903              		.comm	xx_cnt,4,4
 904              		.comm	complete_sign,4,4
 905              		.comm	yy,4,4
 906              		.comm	xx,4,4
 907              		.global	fre_dif
 908              		.global	f
 909              		.global	i
 910              		.global	chanl2_midx
 911              		.global	chanl1_midx
 912              		.global	average_xNum2
 913              		.global	average_xNum1
 914              		.global	chanl2_completed
 915              		.global	chanl1_completed
 916              		.comm	chanl2_capNum_f,400,4
 917              		.comm	chanl1_capNum_f,400,4
 918              		.comm	chanl2_xNum,400,4
 919              		.comm	chanl1_xNum,400,4
 920              		.comm	chanl2_capNum,400,4
 921              		.comm	chanl1_capNum,400,4
 922              		.section	.bss.average_xNum1,"aw",%nobits
 923              		.align	2
 926              	average_xNum1:
 927 0000 00000000 		.space	4
 928              		.section	.bss.average_xNum2,"aw",%nobits
 929              		.align	2
 932              	average_xNum2:
 933 0000 00000000 		.space	4
 934              		.section	.bss.chanl1_completed,"aw",%nobits
 935              		.align	2
 938              	chanl1_completed:
 939 0000 00000000 		.space	4
 940              		.section	.bss.chanl1_midx,"aw",%nobits
 941              		.align	2
 942              		.set	.LANCHOR3,. + 0
 945              	chanl1_midx:
 946 0000 00000000 		.space	4
 947              		.section	.bss.chanl2_completed,"aw",%nobits
 948              		.align	2
 951              	chanl2_completed:
 952 0000 00000000 		.space	4
 953              		.section	.bss.chanl2_midx,"aw",%nobits
 954              		.align	2
 955              		.set	.LANCHOR4,. + 0
 958              	chanl2_midx:
 959 0000 00000000 		.space	4
 960              		.section	.bss.fre_dif,"aw",%nobits
 961              		.align	2
 962              		.set	.LANCHOR0,. + 0
 965              	fre_dif:
 966 0000 00000000 		.space	4
 967              		.section	.bss.i,"aw",%nobits
 968              		.align	2
ARM GAS  /tmp/ccjwCj9m.s 			page 23


 969              		.set	.LANCHOR1,. + 0
 972              	i:
 973 0000 00000000 		.space	4
 974              		.section	.data.f,"aw"
 975              		.align	2
 976              		.set	.LANCHOR2,. + 0
 979              	f:
 980 0000 C3F54840 		.word	1078523331
 981              		.text
 982              	.Letext0:
 983              		.file 2 "/home/cahill/stm32cubeMx/install_bin/gcc-arm-none-eabi-9-2020-q2-update/arm-none-eabi/inc
 984              		.file 3 "/home/cahill/stm32cubeMx/install_bin/gcc-arm-none-eabi-9-2020-q2-update/arm-none-eabi/inc
 985              		.file 4 "Drivers/CMSIS/Include/core_cm4.h"
 986              		.file 5 "Drivers/CMSIS/Device/ST/STM32F4xx/Include/system_stm32f4xx.h"
 987              		.file 6 "Drivers/CMSIS/Device/ST/STM32F4xx/Include/stm32f405xx.h"
 988              		.file 7 "Drivers/STM32F4xx_HAL_Driver/Inc/stm32f4xx_hal_def.h"
 989              		.file 8 "Drivers/STM32F4xx_HAL_Driver/Inc/stm32f4xx_hal_dma.h"
 990              		.file 9 "Drivers/STM32F4xx_HAL_Driver/Inc/stm32f4xx_hal_dac.h"
 991              		.file 10 "Drivers/STM32F4xx_HAL_Driver/Inc/stm32f4xx_hal_tim.h"
 992              		.file 11 "Drivers/STM32F4xx_HAL_Driver/Inc/stm32f4xx_hal_uart.h"
 993              		.file 12 "Drivers/STM32F4xx_HAL_Driver/Inc/stm32f4xx_hal.h"
 994              		.file 13 "/home/cahill/stm32cubeMx/install_bin/gcc-arm-none-eabi-9-2020-q2-update/lib/gcc/arm-none
 995              		.file 14 "/home/cahill/stm32cubeMx/install_bin/gcc-arm-none-eabi-9-2020-q2-update/arm-none-eabi/in
 996              		.file 15 "/home/cahill/stm32cubeMx/install_bin/gcc-arm-none-eabi-9-2020-q2-update/arm-none-eabi/in
 997              		.file 16 "/home/cahill/stm32cubeMx/install_bin/gcc-arm-none-eabi-9-2020-q2-update/arm-none-eabi/in
 998              		.file 17 "Drivers/STM32F4xx_HAL_Driver/Inc/stm32f4xx_hal_gpio.h"
 999              		.file 18 "Core/Inc/ad9520_function.h"
 1000              		.file 19 "/home/cahill/stm32cubeMx/install_bin/gcc-arm-none-eabi-9-2020-q2-update/arm-none-eabi/in
ARM GAS  /tmp/ccjwCj9m.s 			page 24

